; Function Attrs: nounwind uwtable
define hidden void @phpdbg_destroy_watchpoints() local_unnamed_addr #0 {
  %1 = load ptr, ptr getelementptr inbounds (%struct._zend_phpdbg_globals, ptr @phpdbg_globals, i64 0, i32 17, i32 3), align 8
  %2 = load i32, ptr getelementptr inbounds (%struct._zend_phpdbg_globals, ptr @phpdbg_globals, i64 0, i32 17, i32 4), align 8
  %3 = zext i32 %2 to i64
  %4 = getelementptr inbounds %struct._Bucket, ptr %1, i64 %3
  %5 = load i32, ptr getelementptr inbounds (%struct._zend_phpdbg_globals, ptr @phpdbg_globals, i64 0, i32 17, i32 1), align 8
  %6 = and i32 %5, 4
  %.not = icmp eq i32 %6, 0
  tail call void @llvm.assume(i1 %.not)
  %.not1214 = icmp eq i32 %2, 0
  br i1 %.not1214, label %._crit_edge, label %.lr.ph

.lr.ph:                                           ; preds = %0, %36
  %.015 = phi ptr [ %37, %36 ], [ %1, %0 ]
  %7 = getelementptr inbounds i8, ptr %.015, i64 8
  %8 = load i8, ptr %7, align 8
  %9 = icmp eq i8 %8, 0
  br i1 %9, label %36, label %10

10:                                               ; preds = %.lr.ph
  %11 = load ptr, ptr %.015, align 8
  br label %12

12:                                               ; preds = %15, %10
  %.0.i = phi ptr [ %11, %10 ], [ %14, %15 ]
  %13 = getelementptr inbounds i8, ptr %.0.i, i64 24
  %14 = load ptr, ptr %13, align 8
  %.not.i = icmp eq ptr %14, null
  br i1 %.not.i, label %.critedge.i, label %15

15:                                               ; preds = %12
  %16 = getelementptr inbounds i8, ptr %.0.i, i64 16
  %17 = load i8, ptr %16, align 8
  %18 = and i8 %17, 32
  %.not10.i = icmp eq i8 %18, 0
  br i1 %.not10.i, label %12, label %.critedge.i

.critedge.i:                                      ; preds = %15, %12
  store i8 1, ptr getelementptr inbounds (%struct._zend_phpdbg_globals, ptr @phpdbg_globals, i64 0, i32 21), align 8
  %19 = load i32, ptr %.0.i, align 8
  %20 = zext i32 %19 to i64
  %21 = tail call i32 @zend_hash_index_del(ptr noundef nonnull getelementptr inbounds (%struct._zend_phpdbg_globals, ptr @phpdbg_globals, i64 0, i32 15), i64 noundef %20) #17
  %22 = icmp eq i32 %21, 0
  br i1 %22, label %23, label %phpdbg_automatic_dequeue_free.exit

23:                                               ; preds = %.critedge.i
  %24 = load i32, ptr getelementptr inbounds (%struct._zend_phpdbg_globals, ptr @phpdbg_globals, i64 0, i32 39, i64 1), align 4
  %25 = getelementptr inbounds i8, ptr %.0.i, i64 112
  %26 = load ptr, ptr %25, align 8
  %27 = getelementptr inbounds i8, ptr %26, i64 16
  %28 = load i64, ptr %27, align 8
  %29 = trunc i64 %28 to i32
  %30 = getelementptr inbounds i8, ptr %26, i64 24
  %31 = getelementptr inbounds i8, ptr %.0.i, i64 16
  %32 = load i8, ptr %31, align 8
  %33 = and i8 %32, 32
  %.not11.i = icmp eq i8 %33, 0
  %34 = select i1 %.not11.i, ptr @.str.15, ptr @.str.27
  %35 = tail call i32 (i32, i32, ptr, ...) @phpdbg_print(i32 noundef 2, i32 noundef %24, ptr noundef nonnull @.str.26, i32 noundef %29, ptr noundef nonnull %30, ptr noundef nonnull %34) #17
  br label %phpdbg_automatic_dequeue_free.exit

phpdbg_automatic_dequeue_free.exit:               ; preds = %.critedge.i, %23
  tail call void @phpdbg_free_watch_element_tree(ptr noundef %11)
  br label %36

36:                                               ; preds = %.lr.ph, %phpdbg_automatic_dequeue_free.exit
  %37 = getelementptr inbounds i8, ptr %.015, i64 32
  %.not12 = icmp eq ptr %37, %4
  br i1 %.not12, label %._crit_edge, label %.lr.ph

._crit_edge:                                      ; preds = %36, %0
  tail call void @phpdbg_purge_watchpoint_tree()
  %38 = load i32, ptr getelementptr inbounds (%struct._zend_phpdbg_globals, ptr @phpdbg_globals, i64 0, i32 11), align 8
  %.not13 = icmp eq i32 %38, 0
  br i1 %.not13, label %44, label %39

39:                                               ; preds = %._crit_edge
  %40 = load i64, ptr getelementptr inbounds (%struct._zend_phpdbg_globals, ptr @phpdbg_globals, i64 0, i32 12), align 8
  %41 = tail call i32 @pthread_cancel(i64 noundef %40) #17
  %42 = load i32, ptr getelementptr inbounds (%struct._zend_phpdbg_globals, ptr @phpdbg_globals, i64 0, i32 11), align 8
  %43 = tail call i32 @close(i32 noundef %42) #17
  br label %44

44:                                               ; preds = %39, %._crit_edge
  tail call void @zend_hash_destroy(ptr noundef nonnull getelementptr inbounds (%struct._zend_phpdbg_globals, ptr @phpdbg_globals, i64 0, i32 15)) #17
  store i32 0, ptr getelementptr inbounds (%struct._zend_phpdbg_globals, ptr @phpdbg_globals, i64 0, i32 15, i32 5), align 4
  tail call void @zend_hash_destroy(ptr noundef nonnull getelementptr inbounds (%struct._zend_phpdbg_globals, ptr @phpdbg_globals, i64 0, i32 17)) #17
  tail call void @zend_hash_destroy(ptr noundef nonnull getelementptr inbounds (%struct._zend_phpdbg_globals, ptr @phpdbg_globals, i64 0, i32 18)) #17
  tail call void @zend_hash_destroy(ptr noundef nonnull getelementptr inbounds (%struct._zend_phpdbg_globals, ptr @phpdbg_globals, i64 0, i32 16)) #17
  %45 = load ptr, ptr getelementptr inbounds (%struct._zend_phpdbg_globals, ptr @phpdbg_globals, i64 0, i32 19), align 8
  tail call void @zend_hash_destroy(ptr noundef %45) #17
  %46 = load ptr, ptr getelementptr inbounds (%struct._zend_phpdbg_globals, ptr @phpdbg_globals, i64 0, i32 19), align 8
  tail call void @free(ptr noundef %46) #17
  %47 = load ptr, ptr getelementptr inbounds (%struct._zend_phpdbg_globals, ptr @phpdbg_globals, i64 0, i32 20), align 8
  tail call void @zend_hash_destroy(ptr noundef %47) #17
  %48 = load ptr, ptr getelementptr inbounds (%struct._zend_phpdbg_globals, ptr @phpdbg_globals, i64 0, i32 20), align 8
  tail call void @free(ptr noundef %48) #17
  ret void
}